; ModuleID = '46/757.c'
source_filename = "46/757.c"
target datalayout = "e-m:e-p270:32:32-p271:32:32-p272:64:64-i64:64-f80:128-n8:16:32:64-S128"
target triple = "x86_64-pc-linux-gnu"

@.str = private unnamed_addr constant [5 x i8] c"%d%d\00", align 1
@.str.1 = private unnamed_addr constant [3 x i8] c"%d\00", align 1
@.str.2 = private unnamed_addr constant [4 x i8] c"%d\0A\00", align 1

; Function Attrs: noinline nounwind uwtable
define dso_local i32 @main() #0 {
  %1 = alloca i32, align 4
  %2 = alloca [100 x [100 x i32]], align 16
  %3 = alloca i32, align 4
  %4 = alloca i32, align 4
  %5 = alloca i32, align 4
  %6 = alloca i32, align 4
  %7 = alloca i32, align 4
  %8 = alloca i32, align 4
  %9 = alloca i32, align 4
  %10 = alloca i32, align 4
  %11 = alloca i32, align 4
  %12 = alloca i32, align 4
  %13 = alloca i32, align 4
  %14 = alloca i32, align 4
  %15 = alloca i32, align 4
  %16 = alloca i32, align 4
  store i32 0, i32* %1, align 4
  store i32 0, i32* %3, align 4
  store i32 0, i32* %4, align 4
  %17 = call i32 (i8*, ...) @__isoc99_scanf(i8* getelementptr inbounds ([5 x i8], [5 x i8]* @.str, i64 0, i64 0), i32* %5, i32* %6)
  store i32 0, i32* %3, align 4
  br label %18

18:                                               ; preds = %39, %0
  %19 = load i32, i32* %3, align 4
  %20 = load i32, i32* %5, align 4
  %21 = icmp slt i32 %19, %20
  br i1 %21, label %22, label %42

22:                                               ; preds = %18
  store i32 0, i32* %4, align 4
  br label %23

23:                                               ; preds = %35, %22
  %24 = load i32, i32* %4, align 4
  %25 = load i32, i32* %6, align 4
  %26 = icmp slt i32 %24, %25
  br i1 %26, label %27, label %38

27:                                               ; preds = %23
  %28 = load i32, i32* %3, align 4
  %29 = sext i32 %28 to i64
  %30 = getelementptr inbounds [100 x [100 x i32]], [100 x [100 x i32]]* %2, i64 0, i64 %29
  %31 = load i32, i32* %4, align 4
  %32 = sext i32 %31 to i64
  %33 = getelementptr inbounds [100 x i32], [100 x i32]* %30, i64 0, i64 %32
  %34 = call i32 (i8*, ...) @__isoc99_scanf(i8* getelementptr inbounds ([3 x i8], [3 x i8]* @.str.1, i64 0, i64 0), i32* %33)
  br label %35

35:                                               ; preds = %27
  %36 = load i32, i32* %4, align 4
  %37 = add nsw i32 %36, 1
  store i32 %37, i32* %4, align 4
  br label %23

38:                                               ; preds = %23
  br label %39

39:                                               ; preds = %38
  %40 = load i32, i32* %3, align 4
  %41 = add nsw i32 %40, 1
  store i32 %41, i32* %3, align 4
  br label %18

42:                                               ; preds = %18
  store i32 0, i32* %7, align 4
  %43 = load i32, i32* %5, align 4
  %44 = sub nsw i32 %43, 1
  store i32 %44, i32* %8, align 4
  store i32 0, i32* %9, align 4
  %45 = load i32, i32* %6, align 4
  %46 = sub nsw i32 %45, 1
  store i32 %46, i32* %10, align 4
  store i32 0, i32* %7, align 4
  %47 = load i32, i32* %5, align 4
  %48 = sub nsw i32 %47, 1
  store i32 %48, i32* %8, align 4
  store i32 0, i32* %9, align 4
  %49 = load i32, i32* %6, align 4
  %50 = sub nsw i32 %49, 1
  store i32 %50, i32* %10, align 4
  br label %51

51:                                               ; preds = %134, %42
  %52 = load i32, i32* %7, align 4
  %53 = load i32, i32* %8, align 4
  %54 = icmp slt i32 %52, %53
  br i1 %54, label %55, label %59

55:                                               ; preds = %51
  %56 = load i32, i32* %9, align 4
  %57 = load i32, i32* %10, align 4
  %58 = icmp slt i32 %56, %57
  br label %59

59:                                               ; preds = %55, %51
  %60 = phi i1 [ false, %51 ], [ %58, %55 ]
  br i1 %60, label %61, label %143

61:                                               ; preds = %59
  %62 = load i32, i32* %9, align 4
  store i32 %62, i32* %11, align 4
  br label %63

63:                                               ; preds = %76, %61
  %64 = load i32, i32* %11, align 4
  %65 = load i32, i32* %10, align 4
  %66 = icmp slt i32 %64, %65
  br i1 %66, label %67, label %79

67:                                               ; preds = %63
  %68 = load i32, i32* %7, align 4
  %69 = sext i32 %68 to i64
  %70 = getelementptr inbounds [100 x [100 x i32]], [100 x [100 x i32]]* %2, i64 0, i64 %69
  %71 = load i32, i32* %11, align 4
  %72 = sext i32 %71 to i64
  %73 = getelementptr inbounds [100 x i32], [100 x i32]* %70, i64 0, i64 %72
  %74 = load i32, i32* %73, align 4
  %75 = call i32 (i8*, ...) @printf(i8* getelementptr inbounds ([4 x i8], [4 x i8]* @.str.2, i64 0, i64 0), i32 %74)
  br label %76

76:                                               ; preds = %67
  %77 = load i32, i32* %11, align 4
  %78 = add nsw i32 %77, 1
  store i32 %78, i32* %11, align 4
  br label %63

79:                                               ; preds = %63
  %80 = load i32, i32* %7, align 4
  store i32 %80, i32* %12, align 4
  br label %81

81:                                               ; preds = %94, %79
  %82 = load i32, i32* %12, align 4
  %83 = load i32, i32* %8, align 4
  %84 = icmp slt i32 %82, %83
  br i1 %84, label %85, label %97

85:                                               ; preds = %81
  %86 = load i32, i32* %12, align 4
  %87 = sext i32 %86 to i64
  %88 = getelementptr inbounds [100 x [100 x i32]], [100 x [100 x i32]]* %2, i64 0, i64 %87
  %89 = load i32, i32* %10, align 4
  %90 = sext i32 %89 to i64
  %91 = getelementptr inbounds [100 x i32], [100 x i32]* %88, i64 0, i64 %90
  %92 = load i32, i32* %91, align 4
  %93 = call i32 (i8*, ...) @printf(i8* getelementptr inbounds ([4 x i8], [4 x i8]* @.str.2, i64 0, i64 0), i32 %92)
  br label %94

94:                                               ; preds = %85
  %95 = load i32, i32* %12, align 4
  %96 = add nsw i32 %95, 1
  store i32 %96, i32* %12, align 4
  br label %81

97:                                               ; preds = %81
  %98 = load i32, i32* %10, align 4
  store i32 %98, i32* %13, align 4
  br label %99

99:                                               ; preds = %112, %97
  %100 = load i32, i32* %13, align 4
  %101 = load i32, i32* %9, align 4
  %102 = icmp sgt i32 %100, %101
  br i1 %102, label %103, label %115

103:                                              ; preds = %99
  %104 = load i32, i32* %8, align 4
  %105 = sext i32 %104 to i64
  %106 = getelementptr inbounds [100 x [100 x i32]], [100 x [100 x i32]]* %2, i64 0, i64 %105
  %107 = load i32, i32* %13, align 4
  %108 = sext i32 %107 to i64
  %109 = getelementptr inbounds [100 x i32], [100 x i32]* %106, i64 0, i64 %108
  %110 = load i32, i32* %109, align 4
  %111 = call i32 (i8*, ...) @printf(i8* getelementptr inbounds ([4 x i8], [4 x i8]* @.str.2, i64 0, i64 0), i32 %110)
  br label %112

112:                                              ; preds = %103
  %113 = load i32, i32* %13, align 4
  %114 = add nsw i32 %113, -1
  store i32 %114, i32* %13, align 4
  br label %99

115:                                              ; preds = %99
  %116 = load i32, i32* %8, align 4
  store i32 %116, i32* %14, align 4
  br label %117

117:                                              ; preds = %130, %115
  %118 = load i32, i32* %14, align 4
  %119 = load i32, i32* %7, align 4
  %120 = icmp sgt i32 %118, %119
  br i1 %120, label %121, label %133

121:                                              ; preds = %117
  %122 = load i32, i32* %14, align 4
  %123 = sext i32 %122 to i64
  %124 = getelementptr inbounds [100 x [100 x i32]], [100 x [100 x i32]]* %2, i64 0, i64 %123
  %125 = load i32, i32* %9, align 4
  %126 = sext i32 %125 to i64
  %127 = getelementptr inbounds [100 x i32], [100 x i32]* %124, i64 0, i64 %126
  %128 = load i32, i32* %127, align 4
  %129 = call i32 (i8*, ...) @printf(i8* getelementptr inbounds ([4 x i8], [4 x i8]* @.str.2, i64 0, i64 0), i32 %128)
  br label %130

130:                                              ; preds = %121
  %131 = load i32, i32* %14, align 4
  %132 = add nsw i32 %131, -1
  store i32 %132, i32* %14, align 4
  br label %117

133:                                              ; preds = %117
  br label %134

134:                                              ; preds = %133
  %135 = load i32, i32* %7, align 4
  %136 = add nsw i32 %135, 1
  store i32 %136, i32* %7, align 4
  %137 = load i32, i32* %8, align 4
  %138 = add nsw i32 %137, -1
  store i32 %138, i32* %8, align 4
  %139 = load i32, i32* %9, align 4
  %140 = add nsw i32 %139, 1
  store i32 %140, i32* %9, align 4
  %141 = load i32, i32* %10, align 4
  %142 = add nsw i32 %141, -1
  store i32 %142, i32* %10, align 4
  br label %51

143:                                              ; preds = %59
  %144 = load i32, i32* %7, align 4
  %145 = load i32, i32* %8, align 4
  %146 = icmp eq i32 %144, %145
  br i1 %146, label %147, label %166

147:                                              ; preds = %143
  %148 = load i32, i32* %9, align 4
  store i32 %148, i32* %15, align 4
  br label %149

149:                                              ; preds = %162, %147
  %150 = load i32, i32* %15, align 4
  %151 = load i32, i32* %10, align 4
  %152 = icmp sle i32 %150, %151
  br i1 %152, label %153, label %165

153:                                              ; preds = %149
  %154 = load i32, i32* %7, align 4
  %155 = sext i32 %154 to i64
  %156 = getelementptr inbounds [100 x [100 x i32]], [100 x [100 x i32]]* %2, i64 0, i64 %155
  %157 = load i32, i32* %15, align 4
  %158 = sext i32 %157 to i64
  %159 = getelementptr inbounds [100 x i32], [100 x i32]* %156, i64 0, i64 %158
  %160 = load i32, i32* %159, align 4
  %161 = call i32 (i8*, ...) @printf(i8* getelementptr inbounds ([4 x i8], [4 x i8]* @.str.2, i64 0, i64 0), i32 %160)
  br label %162

162:                                              ; preds = %153
  %163 = load i32, i32* %15, align 4
  %164 = add nsw i32 %163, 1
  store i32 %164, i32* %15, align 4
  br label %149

165:                                              ; preds = %149
  br label %190

166:                                              ; preds = %143
  %167 = load i32, i32* %9, align 4
  %168 = load i32, i32* %10, align 4
  %169 = icmp eq i32 %167, %168
  br i1 %169, label %170, label %189

170:                                              ; preds = %166
  %171 = load i32, i32* %7, align 4
  store i32 %171, i32* %16, align 4
  br label %172

172:                                              ; preds = %185, %170
  %173 = load i32, i32* %16, align 4
  %174 = load i32, i32* %8, align 4
  %175 = icmp sle i32 %173, %174
  br i1 %175, label %176, label %188

176:                                              ; preds = %172
  %177 = load i32, i32* %16, align 4
  %178 = sext i32 %177 to i64
  %179 = getelementptr inbounds [100 x [100 x i32]], [100 x [100 x i32]]* %2, i64 0, i64 %178
  %180 = load i32, i32* %9, align 4
  %181 = sext i32 %180 to i64
  %182 = getelementptr inbounds [100 x i32], [100 x i32]* %179, i64 0, i64 %181
  %183 = load i32, i32* %182, align 4
  %184 = call i32 (i8*, ...) @printf(i8* getelementptr inbounds ([4 x i8], [4 x i8]* @.str.2, i64 0, i64 0), i32 %183)
  br label %185

185:                                              ; preds = %176
  %186 = load i32, i32* %16, align 4
  %187 = add nsw i32 %186, 1
  store i32 %187, i32* %16, align 4
  br label %172

188:                                              ; preds = %172
  br label %189

189:                                              ; preds = %188, %166
  br label %190

190:                                              ; preds = %189, %165
  ret i32 0
}

declare dso_local i32 @__isoc99_scanf(i8*, ...) #1

declare dso_local i32 @printf(i8*, ...) #1


!llvm.module.flags = !{!0}
!llvm.ident = !{!1}

!0 = !{i32 1, !"wchar_size", i32 4}
!1 = !{!"clang version 10.0.0-4ubuntu1 "}
